; ModuleID = 'source-C-CXX/28/1725.c'
source_filename = "source-C-CXX/28/1725.c"
target datalayout = "e-m:e-p270:32:32-p271:32:32-p272:64:64-i64:64-f80:128-n8:16:32:64-S128"
target triple = "x86_64-pc-linux-gnu"

@.str = private unnamed_addr constant [3 x i8] c"%d\00", align 1
@.str.1 = private unnamed_addr constant [6 x i8] c"%.3f\0A\00", align 1

; Function Attrs: nofree nosync nounwind readnone sspstrong uwtable
define dso_local i32 @tiffany(i32 %0) local_unnamed_addr #0 {
  br label %2

2:                                                ; preds = %5, %1
  %3 = phi i32 [ 0, %1 ], [ %9, %5 ]
  %4 = phi i32 [ %0, %1 ], [ %8, %5 ]
  switch i32 %4, label %5 [
    i32 1, label %10
    i32 2, label %11
  ]

5:                                                ; preds = %2
  %6 = add nsw i32 %4, -1
  %7 = tail call i32 @tiffany(i32 %6)
  %8 = add nsw i32 %4, -2
  %9 = add nsw i32 %7, %3
  br label %2

10:                                               ; preds = %2
  br label %11

11:                                               ; preds = %2, %10
  %12 = phi i32 [ 2, %10 ], [ 3, %2 ]
  %13 = add nsw i32 %12, %3
  ret i32 %13
}

; Function Attrs: argmemonly mustprogress nofree nosync nounwind willreturn
declare void @llvm.lifetime.start.p0i8(i64 immarg, i8* nocapture) #1

; Function Attrs: argmemonly mustprogress nofree nosync nounwind willreturn
declare void @llvm.lifetime.end.p0i8(i64 immarg, i8* nocapture) #1

; Function Attrs: nofree nosync nounwind readnone sspstrong uwtable
define dso_local i32 @chanel(i32 %0) local_unnamed_addr #0 {
  br label %2

2:                                                ; preds = %7, %1
  %3 = phi i32 [ 0, %1 ], [ %11, %7 ]
  %4 = phi i32 [ %0, %1 ], [ %10, %7 ]
  %5 = add i32 %4, -1
  %6 = icmp ult i32 %5, 2
  br i1 %6, label %12, label %7

7:                                                ; preds = %2
  %8 = add nsw i32 %4, -1
  %9 = tail call i32 @chanel(i32 %8)
  %10 = add nsw i32 %4, -2
  %11 = add nsw i32 %9, %3
  br label %2

12:                                               ; preds = %2
  %13 = add nsw i32 %4, %3
  ret i32 %13
}

; Function Attrs: nofree nounwind sspstrong uwtable
define dso_local i32 @main() local_unnamed_addr #2 {
  %1 = alloca i32, align 4
  %2 = alloca i32, align 4
  %3 = bitcast i32* %1 to i8*
  call void @llvm.lifetime.start.p0i8(i64 4, i8* nonnull %3) #4
  %4 = bitcast i32* %2 to i8*
  call void @llvm.lifetime.start.p0i8(i64 4, i8* nonnull %4) #4
  %5 = call i32 (i8*, ...) @__isoc99_scanf(i8* getelementptr inbounds ([3 x i8], [3 x i8]* @.str, i64 0, i64 0), i32* nonnull %1)
  %6 = load i32, i32* %1, align 4, !tbaa !5
  %7 = icmp slt i32 %6, 1
  br i1 %7, label %30, label %8

8:                                                ; preds = %0, %24
  %9 = phi i32 [ %27, %24 ], [ 1, %0 ]
  %10 = call i32 (i8*, ...) @__isoc99_scanf(i8* getelementptr inbounds ([3 x i8], [3 x i8]* @.str, i64 0, i64 0), i32* nonnull %2)
  %11 = load i32, i32* %2, align 4, !tbaa !5
  %12 = icmp slt i32 %11, 1
  br i1 %12, label %24, label %13

13:                                               ; preds = %8, %13
  %14 = phi double [ %21, %13 ], [ 0.000000e+00, %8 ]
  %15 = phi i32 [ %22, %13 ], [ 1, %8 ]
  %16 = call i32 @tiffany(i32 %15)
  %17 = call i32 @chanel(i32 %15)
  %18 = sitofp i32 %16 to double
  %19 = sitofp i32 %17 to double
  %20 = fdiv double %18, %19
  %21 = fadd double %14, %20
  %22 = add nuw i32 %15, 1
  %23 = icmp eq i32 %15, %11
  br i1 %23, label %24, label %13, !llvm.loop !9

24:                                               ; preds = %13, %8
  %25 = phi double [ 0.000000e+00, %8 ], [ %21, %13 ]
  %26 = call i32 (i8*, ...) @printf(i8* nonnull dereferenceable(1) getelementptr inbounds ([6 x i8], [6 x i8]* @.str.1, i64 0, i64 0), double %25)
  %27 = add nuw nsw i32 %9, 1
  %28 = load i32, i32* %1, align 4, !tbaa !5
  %29 = icmp slt i32 %9, %28
  br i1 %29, label %8, label %30, !llvm.loop !11

30:                                               ; preds = %24, %0
  call void @llvm.lifetime.end.p0i8(i64 4, i8* nonnull %4) #4
  call void @llvm.lifetime.end.p0i8(i64 4, i8* nonnull %3) #4
  ret i32 0
}

; Function Attrs: nofree nounwind
declare noundef i32 @__isoc99_scanf(i8* nocapture noundef readonly, ...) local_unnamed_addr #3

; Function Attrs: nofree nounwind
declare noundef i32 @printf(i8* nocapture noundef readonly, ...) local_unnamed_addr #3


!llvm.module.flags = !{!0, !1, !2, !3}
!llvm.ident = !{!4}

!0 = !{i32 1, !"wchar_size", i32 4}
!1 = !{i32 7, !"PIC Level", i32 2}
!2 = !{i32 7, !"PIE Level", i32 2}
!3 = !{i32 7, !"uwtable", i32 1}
!4 = !{!"clang version 13.0.0"}
!5 = !{!6, !6, i64 0}
!6 = !{!"int", !7, i64 0}
!7 = !{!"omnipotent char", !8, i64 0}
!8 = !{!"Simple C/C++ TBAA"}
!9 = distinct !{!9, !10}
!10 = !{!"llvm.loop.mustprogress"}
!11 = distinct !{!11, !10}
